; Function Attrs: nounwind uwtable
define internal fastcc range(i32 -2147483648, 1) i32 @parse_MP4IODescrTag(ptr noundef nonnull %0, i64 noundef %1, i32 noundef range(i32 1, -2147483648) %2) unnamed_addr #0 {
  %4 = getelementptr inbounds nuw i8, ptr %0, i64 8
  %5 = tail call i32 @avio_rb16(ptr noundef nonnull %4) #12
  %6 = tail call i32 @avio_r8(ptr noundef nonnull %4) #12
  %7 = tail call i32 @avio_r8(ptr noundef nonnull %4) #12
  %8 = tail call i32 @avio_r8(ptr noundef nonnull %4) #12
  %9 = tail call i32 @avio_r8(ptr noundef nonnull %4) #12
  %10 = tail call i32 @avio_r8(ptr noundef nonnull %4) #12
  %11 = tail call i64 @avio_seek(ptr noundef nonnull %4, i64 noundef 0, i32 noundef 1) #12
  %.neg.i = sub i64 %1, %11
  %12 = trunc i64 %.neg.i to i32
  %13 = add i32 %2, %12
  %14 = icmp sgt i32 %13, 0
  br i1 %14, label %.lr.ph, label %parse_mp4_descr_arr.exit

.lr.ph:                                           ; preds = %3, %17
  %.023 = phi i64 [ %18, %17 ], [ %11, %3 ]
  %.01622 = phi i32 [ %20, %17 ], [ %13, %3 ]
  %15 = tail call fastcc i32 @parse_mp4_descr(ptr noundef nonnull %0, i64 noundef %.023, i32 noundef %.01622, i32 noundef 0)
  %16 = icmp slt i32 %15, 0
  br i1 %16, label %parse_mp4_descr_arr.exit, label %17

17:                                               ; preds = %.lr.ph
  %18 = tail call i64 @avio_seek(ptr noundef nonnull %4, i64 noundef 0, i32 noundef 1) #12
  %.neg.i.i = sub i64 %.023, %18
  %19 = trunc i64 %.neg.i.i to i32
  %20 = add i32 %.01622, %19
  %21 = icmp sgt i32 %20, 0
  br i1 %21, label %.lr.ph, label %parse_mp4_descr_arr.exit

parse_mp4_descr_arr.exit:                         ; preds = %17, %.lr.ph, %3
  %.2.i = phi i32 [ 0, %3 ], [ %15, %.lr.ph ], [ 0, %17 ]
  ret i32 %.2.i
}